; Function Attrs: mustprogress uwtable
define internal void @_ZNSt17_Function_handlerIFvvEZN5Yosys10Functional6Writer10print_withIZN12_GLOBAL__N_19CxxModule14write_eval_defERS3_EUlNS2_4NodeEE_JNSt7__cxx1112basic_stringIcSt11char_traitsIcESaIcEEEEEEvT_PKcDpOT0_EUlvE_E9_M_invokeERKSt9_Any_data(ptr noundef nonnull readonly align 8 captures(none) dereferenceable(16) %0) #5 align 2 {
  %.val = load ptr, ptr %0, align 8, !tbaa !593
  %2 = getelementptr inbounds nuw i8, ptr %0, i64 8
  %.val1 = load ptr, ptr %2, align 8, !tbaa !595
  %.val.val = load ptr, ptr %.val, align 8, !tbaa !44
  %.val1.val = load ptr, ptr %.val1, align 8, !tbaa !15
  %3 = getelementptr i8, ptr %.val1, i64 8
  %.val1.val2 = load i64, ptr %3, align 8, !tbaa !20
  %4 = tail call noundef nonnull align 8 dereferenceable(8) ptr @_ZSt16__ostream_insertIcSt11char_traitsIcEERSt13basic_ostreamIT_T0_ES6_PKS3_l(ptr noundef nonnull align 8 dereferenceable(8) %.val.val, ptr noundef %.val1.val, i64 noundef %.val1.val2)
  ret void
}